; Function Attrs: mustprogress nofree norecurse nosync nounwind willreturn memory(argmem: read) uwtable
define dso_local i64 @XML_GetCurrentByteIndex(ptr noundef readonly %0) local_unnamed_addr #5 {
  %2 = icmp eq ptr %0, null
  br i1 %2, label %14, label %3

3:                                                ; preds = %1
  %4 = getelementptr inbounds nuw i8, ptr %0, i64 536
  %5 = load ptr, ptr %4, align 8, !tbaa !188
  %.not = icmp eq ptr %5, null
  br i1 %.not, label %14, label %6

6:                                                ; preds = %3
  %7 = getelementptr inbounds nuw i8, ptr %0, i64 72
  %8 = load i64, ptr %7, align 8, !tbaa !203
  %9 = getelementptr inbounds nuw i8, ptr %0, i64 80
  %10 = load ptr, ptr %9, align 8, !tbaa !202
  %11 = ptrtoint ptr %10 to i64
  %12 = ptrtoint ptr %5 to i64
  %.neg = add i64 %8, %12
  %13 = sub i64 %.neg, %11
  br label %14

14:                                               ; preds = %3, %1, %6
  %.0 = phi i64 [ %13, %6 ], [ -1, %1 ], [ -1, %3 ]
  ret i64 %.0
}